(lp0
ccopy_reg
_reconstructor
p1
(cunirest
UnirestResponse
p2
c__builtin__
object
p3
Ntp4
Rp5
(dp6
S'_code'
p7
I200
sS'_body'
p8
(dp9
Vstatus
p10
Vsuccess
p11
sVimages
p12
(lp13
Vhttp://api.lambdal.com/static/uploads/img9MlsF5.jpg
p14
asS'actualid'
p15
S'00'
p16
sVphotos
p17
(lp18
(dp19
Vurl
p20
Vhttp://api.lambdal.com/static/uploads/img9MlsF5.jpg
p21
sVwidth
p22
I166
sVheight
p23
I150
sVtags
p24
(lp25
sassS'_headers'
p26
(ihttplib
HTTPMessage
p27
(dp28
S'fp'
p29
NsS'status'
p30
S''
p31
sS'startofbody'
p32
NsS'startofheaders'
p33
NsS'subtype'
p34
S'json'
p35
sS'type'
p36
S'application/json'
p37
sS'maintype'
p38
S'application'
p39
sS'headers'
p40
(lp41
S'access-control-allow-origin: *\r\n'
p42
aS'content-type: application/json\r\n'
p43
aS'date: Thu, 13 Mar 2014 18:37:24 GMT\r\n'
p44
aS'server: nginx/1.1.19\r\n'
p45
aS'X-Mashape-Proxy-Response: false\r\n'
p46
aS'X-Mashape-Version: 3.1.11\r\n'
p47
aS'transfer-encoding: chunked\r\n'
p48
aS'Connection: Close\r\n'
p49
asS'dict'
p50
(dp51
S'x-mashape-proxy-response'
p52
S'false'
p53
sS'transfer-encoding'
p54
S'chunked'
p55
sS'server'
p56
S'nginx/1.1.19'
p57
sS'x-mashape-version'
p58
S'3.1.11'
p59
sS'connection'
p60
S'Close'
p61
sS'date'
p62
S'Thu, 13 Mar 2014 18:37:24 GMT'
p63
sS'access-control-allow-origin'
p64
S'*'
p65
sS'content-type'
p66
S'application/json'
p67
ssS'typeheader'
p68
g67
sS'encodingheader'
p69
NsS'seekable'
p70
I0
sS'unixfrom'
p71
g31
sS'plisttext'
p72
g31
sS'plist'
p73
(lp74
sbsS'_raw_body'
p75
S'{\n    "status": "success", \n    "images": [\n        "http://api.lambdal.com/static/uploads/img9MlsF5.jpg"\n    ], \n    "photos": [\n        {\n            "url": "http://api.lambdal.com/static/uploads/img9MlsF5.jpg", \n            "width": 166, \n            "tags": [], \n            "height": 150\n        }\n    ]\n}'
p76
sbag1
(g2
g3
Ntp77
Rp78
(dp79
g7
I200
sg8
(dp80
Vstatus
p81
Vsuccess
p82
sVimages
p83
(lp84
Vhttp://api.lambdal.com/static/uploads/img0NWA8B.jpg
p85
asg15
S'01'
p86
sVphotos
p87
(lp88
(dp89
Vurl
p90
Vhttp://api.lambdal.com/static/uploads/img0NWA8B.jpg
p91
sVwidth
p92
I212
sVheight
p93
I252
sVtags
p94
(lp95
sassg26
(ihttplib
HTTPMessage
p96
(dp97
g29
Nsg30
g31
sg32
Nsg33
Nsg34
S'json'
p98
sg36
S'application/json'
p99
sg38
S'application'
p100
sg40
(lp101
S'access-control-allow-origin: *\r\n'
p102
aS'content-type: application/json\r\n'
p103
aS'date: Thu, 13 Mar 2014 18:37:25 GMT\r\n'
p104
aS'server: nginx/1.1.19\r\n'
p105
aS'X-Mashape-Proxy-Response: false\r\n'
p106
aS'X-Mashape-Version: 3.1.11\r\n'
p107
aS'transfer-encoding: chunked\r\n'
p108
aS'Connection: Close\r\n'
p109
asg50
(dp110
S'x-mashape-proxy-response'
p111
S'false'
p112
sS'transfer-encoding'
p113
S'chunked'
p114
sS'server'
p115
S'nginx/1.1.19'
p116
sS'x-mashape-version'
p117
S'3.1.11'
p118
sS'connection'
p119
S'Close'
p120
sS'date'
p121
S'Thu, 13 Mar 2014 18:37:25 GMT'
p122
sS'access-control-allow-origin'
p123
g65
sS'content-type'
p124
S'application/json'
p125
ssg68
g125
sg69
Nsg70
I0
sg71
g31
sg72
g31
sg73
(lp126
sbsg75
S'{\n    "status": "success", \n    "images": [\n        "http://api.lambdal.com/static/uploads/img0NWA8B.jpg"\n    ], \n    "photos": [\n        {\n            "url": "http://api.lambdal.com/static/uploads/img0NWA8B.jpg", \n            "width": 212, \n            "tags": [], \n            "height": 252\n        }\n    ]\n}'
p127
sbag1
(g2
g3
Ntp128
Rp129
(dp130
g7
I200
sg8
(dp131
Vstatus
p132
Vsuccess
p133
sVimages
p134
(lp135
Vhttp://api.lambdal.com/static/uploads/imgJ4cmdF.jpg
p136
asg15
S'02'
p137
sVphotos
p138
(lp139
(dp140
Vurl
p141
Vhttp://api.lambdal.com/static/uploads/imgJ4cmdF.jpg
p142
sVwidth
p143
I72
sVheight
p144
I86
sVtags
p145
(lp146
(dp147
Vconfidence
p148
F0.978945010372561
sVcenter
p149
(dp150
Vy
p151
I46
sVx
p152
I36
ssVheight
p153
I53
sVwidth
p154
I53
sVtid
p155
V31337
p156
sVattributes
p157
(lp158
(dp159
Vsmile_rating
p160
F0.56
sVsmiling
p161
I01
sVconfidence
p162
F0.56
sasasassg26
(ihttplib
HTTPMessage
p163
(dp164
g29
Nsg30
g31
sg32
Nsg33
Nsg34
S'json'
p165
sg36
S'application/json'
p166
sg38
S'application'
p167
sg40
(lp168
S'access-control-allow-origin: *\r\n'
p169
aS'content-type: application/json\r\n'
p170
aS'date: Thu, 13 Mar 2014 18:37:26 GMT\r\n'
p171
aS'server: nginx/1.1.19\r\n'
p172
aS'X-Mashape-Proxy-Response: false\r\n'
p173
aS'X-Mashape-Version: 3.1.11\r\n'
p174
aS'transfer-encoding: chunked\r\n'
p175
aS'Connection: Close\r\n'
p176
asg50
(dp177
S'x-mashape-proxy-response'
p178
S'false'
p179
sS'transfer-encoding'
p180
S'chunked'
p181
sS'server'
p182
S'nginx/1.1.19'
p183
sS'x-mashape-version'
p184
S'3.1.11'
p185
sS'connection'
p186
S'Close'
p187
sS'date'
p188
S'Thu, 13 Mar 2014 18:37:26 GMT'
p189
sS'access-control-allow-origin'
p190
g65
sS'content-type'
p191
S'application/json'
p192
ssg68
g192
sg69
Nsg70
I0
sg71
g31
sg72
g31
sg73
(lp193
sbsg75
S'{\n    "status": "success", \n    "images": [\n        "http://api.lambdal.com/static/uploads/imgJ4cmdF.jpg"\n    ], \n    "photos": [\n        {\n            "url": "http://api.lambdal.com/static/uploads/imgJ4cmdF.jpg", \n            "width": 72, \n            "tags": [\n                {\n                    "confidence": 0.978945010372561, \n                    "center": {\n                        "y": 46, \n                        "x": 36\n                    }, \n                    "height": 53, \n                    "width": 53, \n                    "tid": "31337", \n                    "attributes": [\n                        {\n                            "smile_rating": 0.56, \n                            "smiling": true, \n                            "confidence": 0.56\n                        }\n                    ]\n                }\n            ], \n            "height": 86\n        }\n    ]\n}'
p194
sbag1
(g2
g3
Ntp195
Rp196
(dp197
g7
I200
sg8
(dp198
Vstatus
p199
Vsuccess
p200
sVimages
p201
(lp202
Vhttp://api.lambdal.com/static/uploads/img86PHFC.jpg
p203
asg15
S'03'
p204
sVphotos
p205
(lp206
(dp207
Vurl
p208
Vhttp://api.lambdal.com/static/uploads/img86PHFC.jpg
p209
sVwidth
p210
I79
sVheight
p211
I95
sVtags
p212
(lp213
(dp214
Vconfidence
p215
F0.8164965809277261
sVcenter
p216
(dp217
Vy
p218
I52
sVx
p219
I39
ssVheight
p220
I58
sVwidth
p221
I58
sVtid
p222
V31337
p223
sVattributes
p224
(lp225
(dp226
Vsmile_rating
p227
F0.28
sVsmiling
p228
I00
sVconfidence
p229
F0.28
sasasassg26
(ihttplib
HTTPMessage
p230
(dp231
g29
Nsg30
g31
sg32
Nsg33
Nsg34
S'json'
p232
sg36
S'application/json'
p233
sg38
S'application'
p234
sg40
(lp235
S'access-control-allow-origin: *\r\n'
p236
aS'content-type: application/json\r\n'
p237
aS'date: Thu, 13 Mar 2014 18:37:26 GMT\r\n'
p238
aS'server: nginx/1.1.19\r\n'
p239
aS'X-Mashape-Proxy-Response: false\r\n'
p240
aS'X-Mashape-Version: 3.1.11\r\n'
p241
aS'transfer-encoding: chunked\r\n'
p242
aS'Connection: Close\r\n'
p243
asg50
(dp244
S'x-mashape-proxy-response'
p245
S'false'
p246
sS'transfer-encoding'
p247
S'chunked'
p248
sS'server'
p249
S'nginx/1.1.19'
p250
sS'x-mashape-version'
p251
S'3.1.11'
p252
sS'connection'
p253
S'Close'
p254
sS'date'
p255
S'Thu, 13 Mar 2014 18:37:26 GMT'
p256
sS'access-control-allow-origin'
p257
g65
sS'content-type'
p258
S'application/json'
p259
ssg68
g259
sg69
Nsg70
I0
sg71
g31
sg72
g31
sg73
(lp260
sbsg75
S'{\n    "status": "success", \n    "images": [\n        "http://api.lambdal.com/static/uploads/img86PHFC.jpg"\n    ], \n    "photos": [\n        {\n            "url": "http://api.lambdal.com/static/uploads/img86PHFC.jpg", \n            "width": 79, \n            "tags": [\n                {\n                    "confidence": 0.8164965809277261, \n                    "center": {\n                        "y": 52, \n                        "x": 39\n                    }, \n                    "height": 58, \n                    "width": 58, \n                    "tid": "31337", \n                    "attributes": [\n                        {\n                            "smile_rating": 0.28, \n                            "smiling": false, \n                            "confidence": 0.28\n                        }\n                    ]\n                }\n            ], \n            "height": 95\n        }\n    ]\n}'
p261
sbag1
(g2
g3
Ntp262
Rp263
(dp264
g7
I200
sg8
(dp265
Vstatus
p266
Vsuccess
p267
sVimages
p268
(lp269
Vhttp://api.lambdal.com/static/uploads/imgXbYwFM.jpg
p270
asg15
S'04'
p271
sVphotos
p272
(lp273
(dp274
Vurl
p275
Vhttp://api.lambdal.com/static/uploads/imgXbYwFM.jpg
p276
sVwidth
p277
I43
sVheight
p278
I52
sVtags
p279
(lp280
sassg26
(ihttplib
HTTPMessage
p281
(dp282
g29
Nsg30
g31
sg32
Nsg33
Nsg34
S'json'
p283
sg36
S'application/json'
p284
sg38
S'application'
p285
sg40
(lp286
S'access-control-allow-origin: *\r\n'
p287
aS'content-type: application/json\r\n'
p288
aS'date: Thu, 13 Mar 2014 18:37:26 GMT\r\n'
p289
aS'server: nginx/1.1.19\r\n'
p290
aS'X-Mashape-Proxy-Response: false\r\n'
p291
aS'X-Mashape-Version: 3.1.11\r\n'
p292
aS'transfer-encoding: chunked\r\n'
p293
aS'Connection: Close\r\n'
p294
asg50
(dp295
S'x-mashape-proxy-response'
p296
S'false'
p297
sS'transfer-encoding'
p298
S'chunked'
p299
sS'server'
p300
S'nginx/1.1.19'
p301
sS'x-mashape-version'
p302
S'3.1.11'
p303
sS'connection'
p304
S'Close'
p305
sS'date'
p306
S'Thu, 13 Mar 2014 18:37:26 GMT'
p307
sS'access-control-allow-origin'
p308
g65
sS'content-type'
p309
S'application/json'
p310
ssg68
g310
sg69
Nsg70
I0
sg71
g31
sg72
g31
sg73
(lp311
sbsg75
S'{\n    "status": "success", \n    "images": [\n        "http://api.lambdal.com/static/uploads/imgXbYwFM.jpg"\n    ], \n    "photos": [\n        {\n            "url": "http://api.lambdal.com/static/uploads/imgXbYwFM.jpg", \n            "width": 43, \n            "tags": [], \n            "height": 52\n        }\n    ]\n}'
p312
sbag1
(g2
g3
Ntp313
Rp314
(dp315
g7
I200
sg8
(dp316
Vstatus
p317
Vsuccess
p318
sVimages
p319
(lp320
Vhttp://api.lambdal.com/static/uploads/imgfb2lGs.jpg
p321
asg15
S'05'
p322
sVphotos
p323
(lp324
(dp325
Vurl
p326
Vhttp://api.lambdal.com/static/uploads/imgfb2lGs.jpg
p327
sVwidth
p328
I57
sVheight
p329
I101
sVtags
p330
(lp331
sassg26
(ihttplib
HTTPMessage
p332
(dp333
g29
Nsg30
g31
sg32
Nsg33
Nsg34
S'json'
p334
sg36
S'application/json'
p335
sg38
S'application'
p336
sg40
(lp337
S'access-control-allow-origin: *\r\n'
p338
aS'content-type: application/json\r\n'
p339
aS'date: Thu, 13 Mar 2014 18:37:27 GMT\r\n'
p340
aS'server: nginx/1.1.19\r\n'
p341
aS'X-Mashape-Proxy-Response: false\r\n'
p342
aS'X-Mashape-Version: 3.1.11\r\n'
p343
aS'transfer-encoding: chunked\r\n'
p344
aS'Connection: Close\r\n'
p345
asg50
(dp346
S'x-mashape-proxy-response'
p347
S'false'
p348
sS'transfer-encoding'
p349
S'chunked'
p350
sS'server'
p351
S'nginx/1.1.19'
p352
sS'x-mashape-version'
p353
S'3.1.11'
p354
sS'connection'
p355
S'Close'
p356
sS'date'
p357
S'Thu, 13 Mar 2014 18:37:27 GMT'
p358
sS'access-control-allow-origin'
p359
g65
sS'content-type'
p360
S'application/json'
p361
ssg68
g361
sg69
Nsg70
I0
sg71
g31
sg72
g31
sg73
(lp362
sbsg75
S'{\n    "status": "success", \n    "images": [\n        "http://api.lambdal.com/static/uploads/imgfb2lGs.jpg"\n    ], \n    "photos": [\n        {\n            "url": "http://api.lambdal.com/static/uploads/imgfb2lGs.jpg", \n            "width": 57, \n            "tags": [], \n            "height": 101\n        }\n    ]\n}'
p363
sbag1
(g2
g3
Ntp364
Rp365
(dp366
g7
I200
sg8
(dp367
Vstatus
p368
Vsuccess
p369
sVimages
p370
(lp371
Vhttp://api.lambdal.com/static/uploads/imgdnumnG.jpg
p372
asg15
S'06'
p373
sVphotos
p374
(lp375
(dp376
Vurl
p377
Vhttp://api.lambdal.com/static/uploads/imgdnumnG.jpg
p378
sVwidth
p379
I258
sVheight
p380
I310
sVtags
p381
(lp382
(dp383
Vconfidence
p384
F0.978945010372561
sVcenter
p385
(dp386
Vy
p387
I164
sVx
p388
I132
ssVmouth_right
p389
(dp390
Vy
p391
F230.0
sVx
p392
F160.0
ssVmouth_left
p393
(dp394
Vy
p395
F230.0
sVx
p396
F97.0
ssVheight
p397
I188
sVwidth
p398
I188
sVmouth_center
p399
(dp400
Vy
p401
F230.0
sVx
p402
F128.5
ssVnose
p403
(dp404
Vy
p405
I192
sVx
p406
I127
ssVtid
p407
V31337
p408
sVattributes
p409
(lp410
(dp411
Vsmile_rating
p412
F0.48
sVsmiling
p413
I00
sVconfidence
p414
F0.48
sasasassg26
(ihttplib
HTTPMessage
p415
(dp416
g29
Nsg30
g31
sg32
Nsg33
Nsg34
S'json'
p417
sg36
S'application/json'
p418
sg38
S'application'
p419
sg40
(lp420
S'access-control-allow-origin: *\r\n'
p421
aS'content-type: application/json\r\n'
p422
aS'date: Thu, 13 Mar 2014 18:37:27 GMT\r\n'
p423
aS'server: nginx/1.1.19\r\n'
p424
aS'X-Mashape-Proxy-Response: false\r\n'
p425
aS'X-Mashape-Version: 3.1.11\r\n'
p426
aS'transfer-encoding: chunked\r\n'
p427
aS'Connection: Close\r\n'
p428
asg50
(dp429
S'x-mashape-proxy-response'
p430
S'false'
p431
sS'transfer-encoding'
p432
S'chunked'
p433
sS'server'
p434
S'nginx/1.1.19'
p435
sS'x-mashape-version'
p436
S'3.1.11'
p437
sS'connection'
p438
S'Close'
p439
sS'date'
p440
S'Thu, 13 Mar 2014 18:37:27 GMT'
p441
sS'access-control-allow-origin'
p442
g65
sS'content-type'
p443
S'application/json'
p444
ssg68
g444
sg69
Nsg70
I0
sg71
g31
sg72
g31
sg73
(lp445
sbsg75
S'{\n    "status": "success", \n    "images": [\n        "http://api.lambdal.com/static/uploads/imgdnumnG.jpg"\n    ], \n    "photos": [\n        {\n            "url": "http://api.lambdal.com/static/uploads/imgdnumnG.jpg", \n            "width": 258, \n            "tags": [\n                {\n                    "confidence": 0.978945010372561, \n                    "center": {\n                        "y": 164, \n                        "x": 132\n                    }, \n                    "mouth_right": {\n                        "y": 230.0, \n                        "x": 160.0\n                    }, \n                    "mouth_left": {\n                        "y": 230.0, \n                        "x": 97.0\n                    }, \n                    "height": 188, \n                    "width": 188, \n                    "mouth_center": {\n                        "y": 230.0, \n                        "x": 128.5\n                    }, \n                    "nose": {\n                        "y": 192, \n                        "x": 127\n                    }, \n                    "tid": "31337", \n                    "attributes": [\n                        {\n                            "smile_rating": 0.48, \n                            "smiling": false, \n                            "confidence": 0.48\n                        }\n                    ]\n                }\n            ], \n            "height": 310\n        }\n    ]\n}'
p446
sbag1
(g2
g3
Ntp447
Rp448
(dp449
g7
I200
sg8
(dp450
Vstatus
p451
Vsuccess
p452
sVimages
p453
(lp454
Vhttp://api.lambdal.com/static/uploads/img9SuYbD.jpg
p455
asg15
S'07'
p456
sVphotos
p457
(lp458
(dp459
Vurl
p460
Vhttp://api.lambdal.com/static/uploads/img9SuYbD.jpg
p461
sVwidth
p462
I182
sVheight
p463
I218
sVtags
p464
(lp465
(dp466
Vconfidence
p467
F0.7071067811865475
sVcenter
p468
(dp469
Vy
p470
I121
sVx
p471
I92
ssVmouth_right
p472
(dp473
Vy
p474
F161.5
sVx
p475
F119.0
ssVmouth_left
p476
(dp477
Vy
p478
F161.5
sVx
p479
F58.0
ssVheight
p480
I132
sVwidth
p481
I132
sVmouth_center
p482
(dp483
Vy
p484
F161.5
sVx
p485
F88.5
ssVnose
p486
(dp487
Vy
p488
I135
sVx
p489
I88
ssVtid
p490
V31337
p491
sVattributes
p492
(lp493
(dp494
Vsmile_rating
p495
F0.32
sVsmiling
p496
I00
sVconfidence
p497
F0.32
sasasassg26
(ihttplib
HTTPMessage
p498
(dp499
g29
Nsg30
g31
sg32
Nsg33
Nsg34
S'json'
p500
sg36
S'application/json'
p501
sg38
S'application'
p502
sg40
(lp503
S'access-control-allow-origin: *\r\n'
p504
aS'content-type: application/json\r\n'
p505
aS'date: Thu, 13 Mar 2014 18:37:28 GMT\r\n'
p506
aS'server: nginx/1.1.19\r\n'
p507
aS'X-Mashape-Proxy-Response: false\r\n'
p508
aS'X-Mashape-Version: 3.1.11\r\n'
p509
aS'transfer-encoding: chunked\r\n'
p510
aS'Connection: Close\r\n'
p511
asg50
(dp512
S'x-mashape-proxy-response'
p513
S'false'
p514
sS'transfer-encoding'
p515
S'chunked'
p516
sS'server'
p517
S'nginx/1.1.19'
p518
sS'x-mashape-version'
p519
S'3.1.11'
p520
sS'connection'
p521
S'Close'
p522
sS'date'
p523
S'Thu, 13 Mar 2014 18:37:28 GMT'
p524
sS'access-control-allow-origin'
p525
g65
sS'content-type'
p526
S'application/json'
p527
ssg68
g527
sg69
Nsg70
I0
sg71
g31
sg72
g31
sg73
(lp528
sbsg75
S'{\n    "status": "success", \n    "images": [\n        "http://api.lambdal.com/static/uploads/img9SuYbD.jpg"\n    ], \n    "photos": [\n        {\n            "url": "http://api.lambdal.com/static/uploads/img9SuYbD.jpg", \n            "width": 182, \n            "tags": [\n                {\n                    "confidence": 0.7071067811865475, \n                    "center": {\n                        "y": 121, \n                        "x": 92\n                    }, \n                    "mouth_right": {\n                        "y": 161.5, \n                        "x": 119.0\n                    }, \n                    "mouth_left": {\n                        "y": 161.5, \n                        "x": 58.0\n                    }, \n                    "height": 132, \n                    "width": 132, \n                    "mouth_center": {\n                        "y": 161.5, \n                        "x": 88.5\n                    }, \n                    "nose": {\n                        "y": 135, \n                        "x": 88\n                    }, \n                    "tid": "31337", \n                    "attributes": [\n                        {\n                            "smile_rating": 0.32, \n                            "smiling": false, \n                            "confidence": 0.32\n                        }\n                    ]\n                }\n            ], \n            "height": 218\n        }\n    ]\n}'
p529
sbag1
(g2
g3
Ntp530
Rp531
(dp532
g7
I200
sg8
(dp533
Vstatus
p534
Vsuccess
p535
sVimages
p536
(lp537
Vhttp://api.lambdal.com/static/uploads/img7usPxR.jpg
p538
asg15
S'08'
p539
sVphotos
p540
(lp541
(dp542
Vurl
p543
Vhttp://api.lambdal.com/static/uploads/img7usPxR.jpg
p544
sVwidth
p545
I271
sVheight
p546
I326
sVtags
p547
(lp548
(dp549
Veye_left
p550
(dp551
Vy
p552
I157
sVx
p553
I173
ssVconfidence
p554
F0.978945010372561
sVcenter
p555
(dp556
Vy
p557
I175
sVx
p558
I139
ssVwidth
p559
I190
sVmouth_left
p560
(dp561
Vy
p562
F241.5
sVx
p563
F108.0
ssVheight
p564
I190
sVmouth_right
p565
(dp566
Vy
p567
F241.5
sVx
p568
F170.0
ssVmouth_center
p569
(dp570
Vy
p571
F241.5
sVx
p572
F139.0
ssVnose
p573
(dp574
Vy
p575
I209
sVx
p576
I133
ssVtid
p577
V31337
p578
sVattributes
p579
(lp580
(dp581
Vsmile_rating
p582
F0.25
sVsmiling
p583
I00
sVconfidence
p584
F0.25
sasVeye_right
p585
(dp586
Vy
p587
I157
sVx
p588
I97
ssasassg26
(ihttplib
HTTPMessage
p589
(dp590
g29
Nsg30
g31
sg32
Nsg33
Nsg34
S'json'
p591
sg36
S'application/json'
p592
sg38
S'application'
p593
sg40
(lp594
S'access-control-allow-origin: *\r\n'
p595
aS'content-type: application/json\r\n'
p596
aS'date: Thu, 13 Mar 2014 18:37:29 GMT\r\n'
p597
aS'server: nginx/1.1.19\r\n'
p598
aS'X-Mashape-Proxy-Response: false\r\n'
p599
aS'X-Mashape-Version: 3.1.11\r\n'
p600
aS'transfer-encoding: chunked\r\n'
p601
aS'Connection: Close\r\n'
p602
asg50
(dp603
S'x-mashape-proxy-response'
p604
S'false'
p605
sS'transfer-encoding'
p606
S'chunked'
p607
sS'server'
p608
S'nginx/1.1.19'
p609
sS'x-mashape-version'
p610
S'3.1.11'
p611
sS'connection'
p612
S'Close'
p613
sS'date'
p614
S'Thu, 13 Mar 2014 18:37:29 GMT'
p615
sS'access-control-allow-origin'
p616
g65
sS'content-type'
p617
S'application/json'
p618
ssg68
g618
sg69
Nsg70
I0
sg71
g31
sg72
g31
sg73
(lp619
sbsg75
S'{\n    "status": "success", \n    "images": [\n        "http://api.lambdal.com/static/uploads/img7usPxR.jpg"\n    ], \n    "photos": [\n        {\n            "url": "http://api.lambdal.com/static/uploads/img7usPxR.jpg", \n            "width": 271, \n            "tags": [\n                {\n                    "eye_left": {\n                        "y": 157, \n                        "x": 173\n                    }, \n                    "confidence": 0.978945010372561, \n                    "center": {\n                        "y": 175, \n                        "x": 139\n                    }, \n                    "mouth_right": {\n                        "y": 241.5, \n                        "x": 170.0\n                    }, \n                    "mouth_left": {\n                        "y": 241.5, \n                        "x": 108.0\n                    }, \n                    "height": 190, \n                    "width": 190, \n                    "mouth_center": {\n                        "y": 241.5, \n                        "x": 139.0\n                    }, \n                    "nose": {\n                        "y": 209, \n                        "x": 133\n                    }, \n                    "tid": "31337", \n                    "attributes": [\n                        {\n                            "smile_rating": 0.25, \n                            "smiling": false, \n                            "confidence": 0.25\n                        }\n                    ], \n                    "eye_right": {\n                        "y": 157, \n                        "x": 97\n                    }\n                }\n            ], \n            "height": 326\n        }\n    ]\n}'
p620
sbag1
(g2
g3
Ntp621
Rp622
(dp623
g7
I200
sg8
(dp624
Vstatus
p625
Vsuccess
p626
sVimages
p627
(lp628
Vhttp://api.lambdal.com/static/uploads/imgOY7Ov0.jpg
p629
asg15
S'09'
p630
sVphotos
p631
(lp632
(dp633
Vurl
p634
Vhttp://api.lambdal.com/static/uploads/imgOY7Ov0.jpg
p635
sVwidth
p636
I87
sVheight
p637
I104
sVtags
p638
(lp639
sassg26
(ihttplib
HTTPMessage
p640
(dp641
g29
Nsg30
g31
sg32
Nsg33
Nsg34
S'json'
p642
sg36
S'application/json'
p643
sg38
S'application'
p644
sg40
(lp645
S'access-control-allow-origin: *\r\n'
p646
aS'content-type: application/json\r\n'
p647
aS'date: Thu, 13 Mar 2014 18:37:29 GMT\r\n'
p648
aS'server: nginx/1.1.19\r\n'
p649
aS'X-Mashape-Proxy-Response: false\r\n'
p650
aS'X-Mashape-Version: 3.1.11\r\n'
p651
aS'transfer-encoding: chunked\r\n'
p652
aS'Connection: Close\r\n'
p653
asg50
(dp654
S'x-mashape-proxy-response'
p655
S'false'
p656
sS'transfer-encoding'
p657
S'chunked'
p658
sS'server'
p659
S'nginx/1.1.19'
p660
sS'x-mashape-version'
p661
S'3.1.11'
p662
sS'connection'
p663
S'Close'
p664
sS'date'
p665
S'Thu, 13 Mar 2014 18:37:29 GMT'
p666
sS'access-control-allow-origin'
p667
g65
sS'content-type'
p668
S'application/json'
p669
ssg68
g669
sg69
Nsg70
I0
sg71
g31
sg72
g31
sg73
(lp670
sbsg75
S'{\n    "status": "success", \n    "images": [\n        "http://api.lambdal.com/static/uploads/imgOY7Ov0.jpg"\n    ], \n    "photos": [\n        {\n            "url": "http://api.lambdal.com/static/uploads/imgOY7Ov0.jpg", \n            "width": 87, \n            "tags": [], \n            "height": 104\n        }\n    ]\n}'
p671
sbag1
(g2
g3
Ntp672
Rp673
(dp674
g7
I200
sg8
(dp675
Vstatus
p676
Vsuccess
p677
sVimages
p678
(lp679
Vhttp://api.lambdal.com/static/uploads/img9b0UEA.jpg
p680
asg15
S'10'
p681
sVphotos
p682
(lp683
(dp684
Vurl
p685
Vhttp://api.lambdal.com/static/uploads/img9b0UEA.jpg
p686
sVwidth
p687
I67
sVheight
p688
I64
sVtags
p689
(lp690
(dp691
Vconfidence
p692
F0.6454972243679029
sVcenter
p693
(dp694
Vy
p695
I26
sVx
p696
I35
ssVheight
p697
I48
sVwidth
p698
I48
sVtid
p699
V31337
p700
sVattributes
p701
(lp702
(dp703
Vsmile_rating
p704
F0.1
sVsmiling
p705
I00
sVconfidence
p706
F0.1
sasasassg26
(ihttplib
HTTPMessage
p707
(dp708
g29
Nsg30
g31
sg32
Nsg33
Nsg34
S'json'
p709
sg36
S'application/json'
p710
sg38
S'application'
p711
sg40
(lp712
S'access-control-allow-origin: *\r\n'
p713
aS'content-type: application/json\r\n'
p714
aS'date: Thu, 13 Mar 2014 18:37:30 GMT\r\n'
p715
aS'server: nginx/1.1.19\r\n'
p716
aS'X-Mashape-Proxy-Response: false\r\n'
p717
aS'X-Mashape-Version: 3.1.11\r\n'
p718
aS'transfer-encoding: chunked\r\n'
p719
aS'Connection: Close\r\n'
p720
asg50
(dp721
S'x-mashape-proxy-response'
p722
S'false'
p723
sS'transfer-encoding'
p724
S'chunked'
p725
sS'server'
p726
S'nginx/1.1.19'
p727
sS'x-mashape-version'
p728
S'3.1.11'
p729
sS'connection'
p730
S'Close'
p731
sS'date'
p732
S'Thu, 13 Mar 2014 18:37:30 GMT'
p733
sS'access-control-allow-origin'
p734
g65
sS'content-type'
p735
S'application/json'
p736
ssg68
g736
sg69
Nsg70
I0
sg71
g31
sg72
g31
sg73
(lp737
sbsg75
S'{\n    "status": "success", \n    "images": [\n        "http://api.lambdal.com/static/uploads/img9b0UEA.jpg"\n    ], \n    "photos": [\n        {\n            "url": "http://api.lambdal.com/static/uploads/img9b0UEA.jpg", \n            "width": 67, \n            "tags": [\n                {\n                    "confidence": 0.6454972243679029, \n                    "center": {\n                        "y": 26, \n                        "x": 35\n                    }, \n                    "height": 48, \n                    "width": 48, \n                    "tid": "31337", \n                    "attributes": [\n                        {\n                            "smile_rating": 0.1, \n                            "smiling": false, \n                            "confidence": 0.1\n                        }\n                    ]\n                }\n            ], \n            "height": 64\n        }\n    ]\n}'
p738
sbag1
(g2
g3
Ntp739
Rp740
(dp741
g7
I200
sg8
(dp742
Vstatus
p743
Vsuccess
p744
sVimages
p745
(lp746
Vhttp://api.lambdal.com/static/uploads/imgezXSPv.jpg
p747
asg15
S'11'
p748
sVphotos
p749
(lp750
(dp751
Vurl
p752
Vhttp://api.lambdal.com/static/uploads/imgezXSPv.jpg
p753
sVwidth
p754
I53
sVheight
p755
I64
sVtags
p756
(lp757
sassg26
(ihttplib
HTTPMessage
p758
(dp759
g29
Nsg30
g31
sg32
Nsg33
Nsg34
S'json'
p760
sg36
S'application/json'
p761
sg38
S'application'
p762
sg40
(lp763
S'access-control-allow-origin: *\r\n'
p764
aS'content-type: application/json\r\n'
p765
aS'date: Thu, 13 Mar 2014 18:37:30 GMT\r\n'
p766
aS'server: nginx/1.1.19\r\n'
p767
aS'X-Mashape-Proxy-Response: false\r\n'
p768
aS'X-Mashape-Version: 3.1.11\r\n'
p769
aS'transfer-encoding: chunked\r\n'
p770
aS'Connection: Close\r\n'
p771
asg50
(dp772
S'x-mashape-proxy-response'
p773
S'false'
p774
sS'transfer-encoding'
p775
S'chunked'
p776
sS'server'
p777
S'nginx/1.1.19'
p778
sS'x-mashape-version'
p779
S'3.1.11'
p780
sS'connection'
p781
S'Close'
p782
sS'date'
p783
S'Thu, 13 Mar 2014 18:37:30 GMT'
p784
sS'access-control-allow-origin'
p785
g65
sS'content-type'
p786
S'application/json'
p787
ssg68
g787
sg69
Nsg70
I0
sg71
g31
sg72
g31
sg73
(lp788
sbsg75
S'{\n    "status": "success", \n    "images": [\n        "http://api.lambdal.com/static/uploads/imgezXSPv.jpg"\n    ], \n    "photos": [\n        {\n            "url": "http://api.lambdal.com/static/uploads/imgezXSPv.jpg", \n            "width": 53, \n            "tags": [], \n            "height": 64\n        }\n    ]\n}'
p789
sbag1
(g2
g3
Ntp790
Rp791
(dp792
g7
I200
sg8
(dp793
Vstatus
p794
Vsuccess
p795
sVimages
p796
(lp797
Vhttp://api.lambdal.com/static/uploads/imgE0cr46.jpg
p798
asg15
S'12'
p799
sVphotos
p800
(lp801
(dp802
Vurl
p803
Vhttp://api.lambdal.com/static/uploads/imgE0cr46.jpg
p804
sVwidth
p805
I278
sVheight
p806
I265
sVtags
p807
(lp808
sassg26
(ihttplib
HTTPMessage
p809
(dp810
g29
Nsg30
g31
sg32
Nsg33
Nsg34
S'json'
p811
sg36
S'application/json'
p812
sg38
S'application'
p813
sg40
(lp814
S'access-control-allow-origin: *\r\n'
p815
aS'content-type: application/json\r\n'
p816
aS'date: Thu, 13 Mar 2014 18:37:30 GMT\r\n'
p817
aS'server: nginx/1.1.19\r\n'
p818
aS'X-Mashape-Proxy-Response: false\r\n'
p819
aS'X-Mashape-Version: 3.1.11\r\n'
p820
aS'transfer-encoding: chunked\r\n'
p821
aS'Connection: Close\r\n'
p822
asg50
(dp823
S'x-mashape-proxy-response'
p824
S'false'
p825
sS'transfer-encoding'
p826
S'chunked'
p827
sS'server'
p828
S'nginx/1.1.19'
p829
sS'x-mashape-version'
p830
S'3.1.11'
p831
sS'connection'
p832
S'Close'
p833
sS'date'
p834
S'Thu, 13 Mar 2014 18:37:30 GMT'
p835
sS'access-control-allow-origin'
p836
g65
sS'content-type'
p837
S'application/json'
p838
ssg68
g838
sg69
Nsg70
I0
sg71
g31
sg72
g31
sg73
(lp839
sbsg75
S'{\n    "status": "success", \n    "images": [\n        "http://api.lambdal.com/static/uploads/imgE0cr46.jpg"\n    ], \n    "photos": [\n        {\n            "url": "http://api.lambdal.com/static/uploads/imgE0cr46.jpg", \n            "width": 278, \n            "tags": [], \n            "height": 265\n        }\n    ]\n}'
p840
sbag1
(g2
g3
Ntp841
Rp842
(dp843
g7
I200
sg8
(dp844
Vstatus
p845
Vsuccess
p846
sVimages
p847
(lp848
Vhttp://api.lambdal.com/static/uploads/imgs0rFV7.jpg
p849
asg15
S'13'
p850
sVphotos
p851
(lp852
(dp853
Vurl
p854
Vhttp://api.lambdal.com/static/uploads/imgs0rFV7.jpg
p855
sVwidth
p856
I134
sVheight
p857
I161
sVtags
p858
(lp859
(dp860
Vconfidence
p861
F0.978945010372561
sVcenter
p862
(dp863
Vy
p864
I84
sVx
p865
I66
ssVheight
p866
I97
sVwidth
p867
I97
sVtid
p868
V31337
p869
sVattributes
p870
(lp871
(dp872
Vsmile_rating
p873
F0.44
sVsmiling
p874
I00
sVconfidence
p875
F0.44
sasVeye_right
p876
(dp877
Vy
p878
I70
sVx
p879
I53
ssasassg26
(ihttplib
HTTPMessage
p880
(dp881
g29
Nsg30
g31
sg32
Nsg33
Nsg34
S'json'
p882
sg36
S'application/json'
p883
sg38
S'application'
p884
sg40
(lp885
S'access-control-allow-origin: *\r\n'
p886
aS'content-type: application/json\r\n'
p887
aS'date: Thu, 13 Mar 2014 18:37:31 GMT\r\n'
p888
aS'server: nginx/1.1.19\r\n'
p889
aS'X-Mashape-Proxy-Response: false\r\n'
p890
aS'X-Mashape-Version: 3.1.11\r\n'
p891
aS'transfer-encoding: chunked\r\n'
p892
aS'Connection: Close\r\n'
p893
asg50
(dp894
S'x-mashape-proxy-response'
p895
S'false'
p896
sS'transfer-encoding'
p897
S'chunked'
p898
sS'server'
p899
S'nginx/1.1.19'
p900
sS'x-mashape-version'
p901
S'3.1.11'
p902
sS'connection'
p903
S'Close'
p904
sS'date'
p905
S'Thu, 13 Mar 2014 18:37:31 GMT'
p906
sS'access-control-allow-origin'
p907
g65
sS'content-type'
p908
S'application/json'
p909
ssg68
g909
sg69
Nsg70
I0
sg71
g31
sg72
g31
sg73
(lp910
sbsg75
S'{\n    "status": "success", \n    "images": [\n        "http://api.lambdal.com/static/uploads/imgs0rFV7.jpg"\n    ], \n    "photos": [\n        {\n            "url": "http://api.lambdal.com/static/uploads/imgs0rFV7.jpg", \n            "width": 134, \n            "tags": [\n                {\n                    "confidence": 0.978945010372561, \n                    "center": {\n                        "y": 84, \n                        "x": 66\n                    }, \n                    "height": 97, \n                    "width": 97, \n                    "tid": "31337", \n                    "attributes": [\n                        {\n                            "smile_rating": 0.44, \n                            "smiling": false, \n                            "confidence": 0.44\n                        }\n                    ], \n                    "eye_right": {\n                        "y": 70, \n                        "x": 53\n                    }\n                }\n            ], \n            "height": 161\n        }\n    ]\n}'
p911
sbag1
(g2
g3
Ntp912
Rp913
(dp914
g7
I200
sg8
(dp915
Vstatus
p916
Vsuccess
p917
sVimages
p918
(lp919
Vhttp://api.lambdal.com/static/uploads/imgzmJuf4.jpg
p920
asg15
S'14'
p921
sVphotos
p922
(lp923
(dp924
Vurl
p925
Vhttp://api.lambdal.com/static/uploads/imgzmJuf4.jpg
p926
sVwidth
p927
I63
sVheight
p928
I76
sVtags
p929
(lp930
(dp931
Vconfidence
p932
F0.978945010372561
sVcenter
p933
(dp934
Vy
p935
I41
sVx
p936
I30
ssVheight
p937
I44
sVwidth
p938
I44
sVtid
p939
V31337
p940
sVattributes
p941
(lp942
(dp943
Vsmile_rating
p944
F0.3
sVsmiling
p945
I00
sVconfidence
p946
F0.3
sasasassg26
(ihttplib
HTTPMessage
p947
(dp948
g29
Nsg30
g31
sg32
Nsg33
Nsg34
S'json'
p949
sg36
S'application/json'
p950
sg38
S'application'
p951
sg40
(lp952
S'access-control-allow-origin: *\r\n'
p953
aS'content-type: application/json\r\n'
p954
aS'date: Thu, 13 Mar 2014 18:37:31 GMT\r\n'
p955
aS'server: nginx/1.1.19\r\n'
p956
aS'X-Mashape-Proxy-Response: false\r\n'
p957
aS'X-Mashape-Version: 3.1.11\r\n'
p958
aS'transfer-encoding: chunked\r\n'
p959
aS'Connection: Close\r\n'
p960
asg50
(dp961
S'x-mashape-proxy-response'
p962
S'false'
p963
sS'transfer-encoding'
p964
S'chunked'
p965
sS'server'
p966
S'nginx/1.1.19'
p967
sS'x-mashape-version'
p968
S'3.1.11'
p969
sS'connection'
p970
S'Close'
p971
sS'date'
p972
S'Thu, 13 Mar 2014 18:37:31 GMT'
p973
sS'access-control-allow-origin'
p974
g65
sS'content-type'
p975
S'application/json'
p976
ssg68
g976
sg69
Nsg70
I0
sg71
g31
sg72
g31
sg73
(lp977
sbsg75
S'{\n    "status": "success", \n    "images": [\n        "http://api.lambdal.com/static/uploads/imgzmJuf4.jpg"\n    ], \n    "photos": [\n        {\n            "url": "http://api.lambdal.com/static/uploads/imgzmJuf4.jpg", \n            "width": 63, \n            "tags": [\n                {\n                    "confidence": 0.978945010372561, \n                    "center": {\n                        "y": 41, \n                        "x": 30\n                    }, \n                    "height": 44, \n                    "width": 44, \n                    "tid": "31337", \n                    "attributes": [\n                        {\n                            "smile_rating": 0.3, \n                            "smiling": false, \n                            "confidence": 0.3\n                        }\n                    ]\n                }\n            ], \n            "height": 76\n        }\n    ]\n}'
p978
sbag1
(g2
g3
Ntp979
Rp980
(dp981
g7
I200
sg8
(dp982
Vstatus
p983
Vsuccess
p984
sVimages
p985
(lp986
Vhttp://api.lambdal.com/static/uploads/img2OQvCO.jpg
p987
asg15
S'15'
p988
sVphotos
p989
(lp990
(dp991
Vurl
p992
Vhttp://api.lambdal.com/static/uploads/img2OQvCO.jpg
p993
sVwidth
p994
I108
sVheight
p995
I130
sVtags
p996
(lp997
(dp998
Vconfidence
p999
F0.8660254037844387
sVcenter
p1000
(dp1001
Vy
p1002
I72
sVx
p1003
I55
ssVheight
p1004
I78
sVwidth
p1005
I78
sVnose
p1006
(dp1007
Vy
p1008
I83
sVx
p1009
I58
ssVtid
p1010
V31337
p1011
sVattributes
p1012
(lp1013
(dp1014
Vsmile_rating
p1015
F0.6
sVsmiling
p1016
I01
sVconfidence
p1017
F0.6
sasasassg26
(ihttplib
HTTPMessage
p1018
(dp1019
g29
Nsg30
g31
sg32
Nsg33
Nsg34
S'json'
p1020
sg36
S'application/json'
p1021
sg38
S'application'
p1022
sg40
(lp1023
S'access-control-allow-origin: *\r\n'
p1024
aS'content-type: application/json\r\n'
p1025
aS'date: Thu, 13 Mar 2014 18:37:32 GMT\r\n'
p1026
aS'server: nginx/1.1.19\r\n'
p1027
aS'X-Mashape-Proxy-Response: false\r\n'
p1028
aS'X-Mashape-Version: 3.1.11\r\n'
p1029
aS'transfer-encoding: chunked\r\n'
p1030
aS'Connection: Close\r\n'
p1031
asg50
(dp1032
S'x-mashape-proxy-response'
p1033
S'false'
p1034
sS'transfer-encoding'
p1035
S'chunked'
p1036
sS'server'
p1037
S'nginx/1.1.19'
p1038
sS'x-mashape-version'
p1039
S'3.1.11'
p1040
sS'connection'
p1041
S'Close'
p1042
sS'date'
p1043
S'Thu, 13 Mar 2014 18:37:32 GMT'
p1044
sS'access-control-allow-origin'
p1045
g65
sS'content-type'
p1046
S'application/json'
p1047
ssg68
g1047
sg69
Nsg70
I0
sg71
g31
sg72
g31
sg73
(lp1048
sbsg75
S'{\n    "status": "success", \n    "images": [\n        "http://api.lambdal.com/static/uploads/img2OQvCO.jpg"\n    ], \n    "photos": [\n        {\n            "url": "http://api.lambdal.com/static/uploads/img2OQvCO.jpg", \n            "width": 108, \n            "tags": [\n                {\n                    "confidence": 0.8660254037844387, \n                    "center": {\n                        "y": 72, \n                        "x": 55\n                    }, \n                    "height": 78, \n                    "width": 78, \n                    "nose": {\n                        "y": 83, \n                        "x": 58\n                    }, \n                    "tid": "31337", \n                    "attributes": [\n                        {\n                            "smile_rating": 0.6, \n                            "smiling": true, \n                            "confidence": 0.6\n                        }\n                    ]\n                }\n            ], \n            "height": 130\n        }\n    ]\n}'
p1049
sbag1
(g2
g3
Ntp1050
Rp1051
(dp1052
g7
I200
sg8
(dp1053
Vstatus
p1054
Vsuccess
p1055
sVimages
p1056
(lp1057
Vhttp://api.lambdal.com/static/uploads/imgAY0QW9.jpg
p1058
asg15
S'16'
p1059
sVphotos
p1060
(lp1061
(dp1062
Vurl
p1063
Vhttp://api.lambdal.com/static/uploads/imgAY0QW9.jpg
p1064
sVwidth
p1065
I220
sVheight
p1066
I264
sVtags
p1067
(lp1068
sassg26
(ihttplib
HTTPMessage
p1069
(dp1070
g29
Nsg30
g31
sg32
Nsg33
Nsg34
S'json'
p1071
sg36
S'application/json'
p1072
sg38
S'application'
p1073
sg40
(lp1074
S'access-control-allow-origin: *\r\n'
p1075
aS'content-type: application/json\r\n'
p1076
aS'date: Thu, 13 Mar 2014 18:37:32 GMT\r\n'
p1077
aS'server: nginx/1.1.19\r\n'
p1078
aS'X-Mashape-Proxy-Response: false\r\n'
p1079
aS'X-Mashape-Version: 3.1.11\r\n'
p1080
aS'transfer-encoding: chunked\r\n'
p1081
aS'Connection: Close\r\n'
p1082
asg50
(dp1083
S'x-mashape-proxy-response'
p1084
S'false'
p1085
sS'transfer-encoding'
p1086
S'chunked'
p1087
sS'server'
p1088
S'nginx/1.1.19'
p1089
sS'x-mashape-version'
p1090
S'3.1.11'
p1091
sS'connection'
p1092
S'Close'
p1093
sS'date'
p1094
S'Thu, 13 Mar 2014 18:37:32 GMT'
p1095
sS'access-control-allow-origin'
p1096
g65
sS'content-type'
p1097
S'application/json'
p1098
ssg68
g1098
sg69
Nsg70
I0
sg71
g31
sg72
g31
sg73
(lp1099
sbsg75
S'{\n    "status": "success", \n    "images": [\n        "http://api.lambdal.com/static/uploads/imgAY0QW9.jpg"\n    ], \n    "photos": [\n        {\n            "url": "http://api.lambdal.com/static/uploads/imgAY0QW9.jpg", \n            "width": 220, \n            "tags": [], \n            "height": 264\n        }\n    ]\n}'
p1100
sbag1
(g2
g3
Ntp1101
Rp1102
(dp1103
g7
I200
sg8
(dp1104
Vstatus
p1105
Vsuccess
p1106
sVimages
p1107
(lp1108
Vhttp://api.lambdal.com/static/uploads/imgHf86wO.jpg
p1109
asg15
S'17'
p1110
sVphotos
p1111
(lp1112
(dp1113
Vurl
p1114
Vhttp://api.lambdal.com/static/uploads/imgHf86wO.jpg
p1115
sVwidth
p1116
I186
sVheight
p1117
I223
sVtags
p1118
(lp1119
sassg26
(ihttplib
HTTPMessage
p1120
(dp1121
g29
Nsg30
g31
sg32
Nsg33
Nsg34
S'json'
p1122
sg36
S'application/json'
p1123
sg38
S'application'
p1124
sg40
(lp1125
S'access-control-allow-origin: *\r\n'
p1126
aS'content-type: application/json\r\n'
p1127
aS'date: Thu, 13 Mar 2014 18:37:33 GMT\r\n'
p1128
aS'server: nginx/1.1.19\r\n'
p1129
aS'X-Mashape-Proxy-Response: false\r\n'
p1130
aS'X-Mashape-Version: 3.1.11\r\n'
p1131
aS'transfer-encoding: chunked\r\n'
p1132
aS'Connection: Close\r\n'
p1133
asg50
(dp1134
S'x-mashape-proxy-response'
p1135
S'false'
p1136
sS'transfer-encoding'
p1137
S'chunked'
p1138
sS'server'
p1139
S'nginx/1.1.19'
p1140
sS'x-mashape-version'
p1141
S'3.1.11'
p1142
sS'connection'
p1143
S'Close'
p1144
sS'date'
p1145
S'Thu, 13 Mar 2014 18:37:33 GMT'
p1146
sS'access-control-allow-origin'
p1147
g65
sS'content-type'
p1148
S'application/json'
p1149
ssg68
g1149
sg69
Nsg70
I0
sg71
g31
sg72
g31
sg73
(lp1150
sbsg75
S'{\n    "status": "success", \n    "images": [\n        "http://api.lambdal.com/static/uploads/imgHf86wO.jpg"\n    ], \n    "photos": [\n        {\n            "url": "http://api.lambdal.com/static/uploads/imgHf86wO.jpg", \n            "width": 186, \n            "tags": [], \n            "height": 223\n        }\n    ]\n}'
p1151
sbag1
(g2
g3
Ntp1152
Rp1153
(dp1154
g7
I200
sg8
(dp1155
Vstatus
p1156
Vsuccess
p1157
sVimages
p1158
(lp1159
Vhttp://api.lambdal.com/static/uploads/imghlGXm2.jpg
p1160
asg15
S'18'
p1161
sVphotos
p1162
(lp1163
(dp1164
Vurl
p1165
Vhttp://api.lambdal.com/static/uploads/imghlGXm2.jpg
p1166
sVwidth
p1167
I76
sVheight
p1168
I92
sVtags
p1169
(lp1170
sassg26
(ihttplib
HTTPMessage
p1171
(dp1172
g29
Nsg30
g31
sg32
Nsg33
Nsg34
S'json'
p1173
sg36
S'application/json'
p1174
sg38
S'application'
p1175
sg40
(lp1176
S'access-control-allow-origin: *\r\n'
p1177
aS'content-type: application/json\r\n'
p1178
aS'date: Thu, 13 Mar 2014 18:37:33 GMT\r\n'
p1179
aS'server: nginx/1.1.19\r\n'
p1180
aS'X-Mashape-Proxy-Response: false\r\n'
p1181
aS'X-Mashape-Version: 3.1.11\r\n'
p1182
aS'transfer-encoding: chunked\r\n'
p1183
aS'Connection: Close\r\n'
p1184
asg50
(dp1185
S'x-mashape-proxy-response'
p1186
S'false'
p1187
sS'transfer-encoding'
p1188
S'chunked'
p1189
sS'server'
p1190
S'nginx/1.1.19'
p1191
sS'x-mashape-version'
p1192
S'3.1.11'
p1193
sS'connection'
p1194
S'Close'
p1195
sS'date'
p1196
S'Thu, 13 Mar 2014 18:37:33 GMT'
p1197
sS'access-control-allow-origin'
p1198
g65
sS'content-type'
p1199
S'application/json'
p1200
ssg68
g1200
sg69
Nsg70
I0
sg71
g31
sg72
g31
sg73
(lp1201
sbsg75
S'{\n    "status": "success", \n    "images": [\n        "http://api.lambdal.com/static/uploads/imghlGXm2.jpg"\n    ], \n    "photos": [\n        {\n            "url": "http://api.lambdal.com/static/uploads/imghlGXm2.jpg", \n            "width": 76, \n            "tags": [], \n            "height": 92\n        }\n    ]\n}'
p1202
sbag1
(g2
g3
Ntp1203
Rp1204
(dp1205
g7
I200
sg8
(dp1206
Vstatus
p1207
Vsuccess
p1208
sVimages
p1209
(lp1210
Vhttp://api.lambdal.com/static/uploads/imgSGsqzO.jpg
p1211
asg15
S'19'
p1212
sVphotos
p1213
(lp1214
(dp1215
Vurl
p1216
Vhttp://api.lambdal.com/static/uploads/imgSGsqzO.jpg
p1217
sVwidth
p1218
I546
sVheight
p1219
I480
sVtags
p1220
(lp1221
(dp1222
Veye_left
p1223
(dp1224
Vy
p1225
I276
sVx
p1226
I377
ssVconfidence
p1227
F0.978945010372561
sVcenter
p1228
(dp1229
Vy
p1230
I290
sVx
p1231
I317
ssVheight
p1232
I306
sVwidth
p1233
I306
sVnose
p1234
(dp1235
Vy
p1236
I367
sVx
p1237
I310
ssVtid
p1238
V31337
p1239
sVattributes
p1240
(lp1241
(dp1242
Vsmile_rating
p1243
F0.3
sVsmiling
p1244
I00
sVconfidence
p1245
F0.3
sasVeye_right
p1246
(dp1247
Vy
p1248
I268
sVx
p1249
I231
ssasassg26
(ihttplib
HTTPMessage
p1250
(dp1251
g29
Nsg30
g31
sg32
Nsg33
Nsg34
S'json'
p1252
sg36
S'application/json'
p1253
sg38
S'application'
p1254
sg40
(lp1255
S'access-control-allow-origin: *\r\n'
p1256
aS'content-type: application/json\r\n'
p1257
aS'date: Thu, 13 Mar 2014 18:37:34 GMT\r\n'
p1258
aS'server: nginx/1.1.19\r\n'
p1259
aS'X-Mashape-Proxy-Response: false\r\n'
p1260
aS'X-Mashape-Version: 3.1.11\r\n'
p1261
aS'transfer-encoding: chunked\r\n'
p1262
aS'Connection: Close\r\n'
p1263
asg50
(dp1264
S'x-mashape-proxy-response'
p1265
S'false'
p1266
sS'transfer-encoding'
p1267
S'chunked'
p1268
sS'server'
p1269
S'nginx/1.1.19'
p1270
sS'x-mashape-version'
p1271
S'3.1.11'
p1272
sS'connection'
p1273
S'Close'
p1274
sS'date'
p1275
S'Thu, 13 Mar 2014 18:37:34 GMT'
p1276
sS'access-control-allow-origin'
p1277
g65
sS'content-type'
p1278
S'application/json'
p1279
ssg68
g1279
sg69
Nsg70
I0
sg71
g31
sg72
g31
sg73
(lp1280
sbsg75
S'{\n    "status": "success", \n    "images": [\n        "http://api.lambdal.com/static/uploads/imgSGsqzO.jpg"\n    ], \n    "photos": [\n        {\n            "url": "http://api.lambdal.com/static/uploads/imgSGsqzO.jpg", \n            "width": 546, \n            "tags": [\n                {\n                    "eye_left": {\n                        "y": 276, \n                        "x": 377\n                    }, \n                    "confidence": 0.978945010372561, \n                    "center": {\n                        "y": 290, \n                        "x": 317\n                    }, \n                    "height": 306, \n                    "width": 306, \n                    "nose": {\n                        "y": 367, \n                        "x": 310\n                    }, \n                    "tid": "31337", \n                    "attributes": [\n                        {\n                            "smile_rating": 0.3, \n                            "smiling": false, \n                            "confidence": 0.3\n                        }\n                    ], \n                    "eye_right": {\n                        "y": 268, \n                        "x": 231\n                    }\n                }\n            ], \n            "height": 480\n        }\n    ]\n}'
p1281
sbag1
(g2
g3
Ntp1282
Rp1283
(dp1284
g7
I200
sg8
(dp1285
Vstatus
p1286
Vsuccess
p1287
sVimages
p1288
(lp1289
Vhttp://api.lambdal.com/static/uploads/imgGlt6yt.jpg
p1290
asg15
S'20'
p1291
sVphotos
p1292
(lp1293
(dp1294
Vurl
p1295
Vhttp://api.lambdal.com/static/uploads/imgGlt6yt.jpg
p1296
sVwidth
p1297
I61
sVheight
p1298
I73
sVtags
p1299
(lp1300
(dp1301
Vconfidence
p1302
F0.978945010372561
sVcenter
p1303
(dp1304
Vy
p1305
I40
sVx
p1306
I31
ssVheight
p1307
I42
sVwidth
p1308
I42
sVtid
p1309
V31337
p1310
sVattributes
p1311
(lp1312
(dp1313
Vsmile_rating
p1314
F0.4
sVsmiling
p1315
I00
sVconfidence
p1316
F0.4
sasasassg26
(ihttplib
HTTPMessage
p1317
(dp1318
g29
Nsg30
g31
sg32
Nsg33
Nsg34
S'json'
p1319
sg36
S'application/json'
p1320
sg38
S'application'
p1321
sg40
(lp1322
S'access-control-allow-origin: *\r\n'
p1323
aS'content-type: application/json\r\n'
p1324
aS'date: Thu, 13 Mar 2014 18:37:35 GMT\r\n'
p1325
aS'server: nginx/1.1.19\r\n'
p1326
aS'X-Mashape-Proxy-Response: false\r\n'
p1327
aS'X-Mashape-Version: 3.1.11\r\n'
p1328
aS'transfer-encoding: chunked\r\n'
p1329
aS'Connection: Close\r\n'
p1330
asg50
(dp1331
S'x-mashape-proxy-response'
p1332
S'false'
p1333
sS'transfer-encoding'
p1334
S'chunked'
p1335
sS'server'
p1336
S'nginx/1.1.19'
p1337
sS'x-mashape-version'
p1338
S'3.1.11'
p1339
sS'connection'
p1340
S'Close'
p1341
sS'date'
p1342
S'Thu, 13 Mar 2014 18:37:35 GMT'
p1343
sS'access-control-allow-origin'
p1344
g65
sS'content-type'
p1345
S'application/json'
p1346
ssg68
g1346
sg69
Nsg70
I0
sg71
g31
sg72
g31
sg73
(lp1347
sbsg75
S'{\n    "status": "success", \n    "images": [\n        "http://api.lambdal.com/static/uploads/imgGlt6yt.jpg"\n    ], \n    "photos": [\n        {\n            "url": "http://api.lambdal.com/static/uploads/imgGlt6yt.jpg", \n            "width": 61, \n            "tags": [\n                {\n                    "confidence": 0.978945010372561, \n                    "center": {\n                        "y": 40, \n                        "x": 31\n                    }, \n                    "height": 42, \n                    "width": 42, \n                    "tid": "31337", \n                    "attributes": [\n                        {\n                            "smile_rating": 0.4, \n                            "smiling": false, \n                            "confidence": 0.4\n                        }\n                    ]\n                }\n            ], \n            "height": 73\n        }\n    ]\n}'
p1348
sbag1
(g2
g3
Ntp1349
Rp1350
(dp1351
g7
I200
sg8
(dp1352
Vstatus
p1353
Vsuccess
p1354
sVimages
p1355
(lp1356
Vhttp://api.lambdal.com/static/uploads/img2C3oZA.jpg
p1357
asg15
S'21'
p1358
sVphotos
p1359
(lp1360
(dp1361
Vurl
p1362
Vhttp://api.lambdal.com/static/uploads/img2C3oZA.jpg
p1363
sVwidth
p1364
I162
sVheight
p1365
I194
sVtags
p1366
(lp1367
sassg26
(ihttplib
HTTPMessage
p1368
(dp1369
g29
Nsg30
g31
sg32
Nsg33
Nsg34
S'json'
p1370
sg36
S'application/json'
p1371
sg38
S'application'
p1372
sg40
(lp1373
S'access-control-allow-origin: *\r\n'
p1374
aS'content-type: application/json\r\n'
p1375
aS'date: Thu, 13 Mar 2014 18:37:35 GMT\r\n'
p1376
aS'server: nginx/1.1.19\r\n'
p1377
aS'X-Mashape-Proxy-Response: false\r\n'
p1378
aS'X-Mashape-Version: 3.1.11\r\n'
p1379
aS'transfer-encoding: chunked\r\n'
p1380
aS'Connection: Close\r\n'
p1381
asg50
(dp1382
S'x-mashape-proxy-response'
p1383
S'false'
p1384
sS'transfer-encoding'
p1385
S'chunked'
p1386
sS'server'
p1387
S'nginx/1.1.19'
p1388
sS'x-mashape-version'
p1389
S'3.1.11'
p1390
sS'connection'
p1391
S'Close'
p1392
sS'date'
p1393
S'Thu, 13 Mar 2014 18:37:35 GMT'
p1394
sS'access-control-allow-origin'
p1395
g65
sS'content-type'
p1396
S'application/json'
p1397
ssg68
g1397
sg69
Nsg70
I0
sg71
g31
sg72
g31
sg73
(lp1398
sbsg75
S'{\n    "status": "success", \n    "images": [\n        "http://api.lambdal.com/static/uploads/img2C3oZA.jpg"\n    ], \n    "photos": [\n        {\n            "url": "http://api.lambdal.com/static/uploads/img2C3oZA.jpg", \n            "width": 162, \n            "tags": [], \n            "height": 194\n        }\n    ]\n}'
p1399
sbag1
(g2
g3
Ntp1400
Rp1401
(dp1402
g7
I200
sg8
(dp1403
Vstatus
p1404
Vsuccess
p1405
sVimages
p1406
(lp1407
Vhttp://api.lambdal.com/static/uploads/imgoDqzeX.jpg
p1408
asg15
S'22'
p1409
sVphotos
p1410
(lp1411
(dp1412
Vurl
p1413
Vhttp://api.lambdal.com/static/uploads/imgoDqzeX.jpg
p1414
sVwidth
p1415
I144
sVheight
p1416
I173
sVtags
p1417
(lp1418
sassg26
(ihttplib
HTTPMessage
p1419
(dp1420
g29
Nsg30
g31
sg32
Nsg33
Nsg34
S'json'
p1421
sg36
S'application/json'
p1422
sg38
S'application'
p1423
sg40
(lp1424
S'access-control-allow-origin: *\r\n'
p1425
aS'content-type: application/json\r\n'
p1426
aS'date: Thu, 13 Mar 2014 18:37:35 GMT\r\n'
p1427
aS'server: nginx/1.1.19\r\n'
p1428
aS'X-Mashape-Proxy-Response: false\r\n'
p1429
aS'X-Mashape-Version: 3.1.11\r\n'
p1430
aS'transfer-encoding: chunked\r\n'
p1431
aS'Connection: Close\r\n'
p1432
asg50
(dp1433
S'x-mashape-proxy-response'
p1434
S'false'
p1435
sS'transfer-encoding'
p1436
S'chunked'
p1437
sS'server'
p1438
S'nginx/1.1.19'
p1439
sS'x-mashape-version'
p1440
S'3.1.11'
p1441
sS'connection'
p1442
S'Close'
p1443
sS'date'
p1444
S'Thu, 13 Mar 2014 18:37:35 GMT'
p1445
sS'access-control-allow-origin'
p1446
g65
sS'content-type'
p1447
S'application/json'
p1448
ssg68
g1448
sg69
Nsg70
I0
sg71
g31
sg72
g31
sg73
(lp1449
sbsg75
S'{\n    "status": "success", \n    "images": [\n        "http://api.lambdal.com/static/uploads/imgoDqzeX.jpg"\n    ], \n    "photos": [\n        {\n            "url": "http://api.lambdal.com/static/uploads/imgoDqzeX.jpg", \n            "width": 144, \n            "tags": [], \n            "height": 173\n        }\n    ]\n}'
p1450
sbag1
(g2
g3
Ntp1451
Rp1452
(dp1453
g7
I200
sg8
(dp1454
Vstatus
p1455
Vsuccess
p1456
sVimages
p1457
(lp1458
Vhttp://api.lambdal.com/static/uploads/img2L44oH.jpg
p1459
asg15
S'23'
p1460
sVphotos
p1461
(lp1462
(dp1463
Vurl
p1464
Vhttp://api.lambdal.com/static/uploads/img2L44oH.jpg
p1465
sVwidth
p1466
I99
sVheight
p1467
I94
sVtags
p1468
(lp1469
sassg26
(ihttplib
HTTPMessage
p1470
(dp1471
g29
Nsg30
g31
sg32
Nsg33
Nsg34
S'json'
p1472
sg36
S'application/json'
p1473
sg38
S'application'
p1474
sg40
(lp1475
S'access-control-allow-origin: *\r\n'
p1476
aS'content-type: application/json\r\n'
p1477
aS'date: Thu, 13 Mar 2014 18:37:36 GMT\r\n'
p1478
aS'server: nginx/1.1.19\r\n'
p1479
aS'X-Mashape-Proxy-Response: false\r\n'
p1480
aS'X-Mashape-Version: 3.1.11\r\n'
p1481
aS'transfer-encoding: chunked\r\n'
p1482
aS'Connection: Close\r\n'
p1483
asg50
(dp1484
S'x-mashape-proxy-response'
p1485
S'false'
p1486
sS'transfer-encoding'
p1487
S'chunked'
p1488
sS'server'
p1489
S'nginx/1.1.19'
p1490
sS'x-mashape-version'
p1491
S'3.1.11'
p1492
sS'connection'
p1493
S'Close'
p1494
sS'date'
p1495
S'Thu, 13 Mar 2014 18:37:36 GMT'
p1496
sS'access-control-allow-origin'
p1497
g65
sS'content-type'
p1498
S'application/json'
p1499
ssg68
g1499
sg69
Nsg70
I0
sg71
g31
sg72
g31
sg73
(lp1500
sbsg75
S'{\n    "status": "success", \n    "images": [\n        "http://api.lambdal.com/static/uploads/img2L44oH.jpg"\n    ], \n    "photos": [\n        {\n            "url": "http://api.lambdal.com/static/uploads/img2L44oH.jpg", \n            "width": 99, \n            "tags": [], \n            "height": 94\n        }\n    ]\n}'
p1501
sbag1
(g2
g3
Ntp1502
Rp1503
(dp1504
g7
I200
sg8
(dp1505
Vstatus
p1506
Vsuccess
p1507
sVimages
p1508
(lp1509
Vhttp://api.lambdal.com/static/uploads/imgK2qpjF.jpg
p1510
asg15
S'24'
p1511
sVphotos
p1512
(lp1513
(dp1514
Vurl
p1515
Vhttp://api.lambdal.com/static/uploads/imgK2qpjF.jpg
p1516
sVwidth
p1517
I202
sVheight
p1518
I241
sVtags
p1519
(lp1520
(dp1521
Veye_left
p1522
(dp1523
Vy
p1524
I115
sVx
p1525
I128
ssVconfidence
p1526
F0.978945010372561
sVcenter
p1527
(dp1528
Vy
p1529
I126
sVx
p1530
I101
ssVheight
p1531
I138
sVwidth
p1532
I138
sVnose
p1533
(dp1534
Vy
p1535
I147
sVx
p1536
I96
ssVtid
p1537
V31337
p1538
sVattributes
p1539
(lp1540
(dp1541
Vsmile_rating
p1542
F0.26
sVsmiling
p1543
I00
sVconfidence
p1544
F0.26
sasVeye_right
p1545
(dp1546
Vy
p1547
I112
sVx
p1548
I71
ssasassg26
(ihttplib
HTTPMessage
p1549
(dp1550
g29
Nsg30
g31
sg32
Nsg33
Nsg34
S'json'
p1551
sg36
S'application/json'
p1552
sg38
S'application'
p1553
sg40
(lp1554
S'access-control-allow-origin: *\r\n'
p1555
aS'content-type: application/json\r\n'
p1556
aS'date: Thu, 13 Mar 2014 18:37:36 GMT\r\n'
p1557
aS'server: nginx/1.1.19\r\n'
p1558
aS'X-Mashape-Proxy-Response: false\r\n'
p1559
aS'X-Mashape-Version: 3.1.11\r\n'
p1560
aS'transfer-encoding: chunked\r\n'
p1561
aS'Connection: Close\r\n'
p1562
asg50
(dp1563
S'x-mashape-proxy-response'
p1564
S'false'
p1565
sS'transfer-encoding'
p1566
S'chunked'
p1567
sS'server'
p1568
S'nginx/1.1.19'
p1569
sS'x-mashape-version'
p1570
S'3.1.11'
p1571
sS'connection'
p1572
S'Close'
p1573
sS'date'
p1574
S'Thu, 13 Mar 2014 18:37:36 GMT'
p1575
sS'access-control-allow-origin'
p1576
g65
sS'content-type'
p1577
S'application/json'
p1578
ssg68
g1578
sg69
Nsg70
I0
sg71
g31
sg72
g31
sg73
(lp1579
sbsg75
S'{\n    "status": "success", \n    "images": [\n        "http://api.lambdal.com/static/uploads/imgK2qpjF.jpg"\n    ], \n    "photos": [\n        {\n            "url": "http://api.lambdal.com/static/uploads/imgK2qpjF.jpg", \n            "width": 202, \n            "tags": [\n                {\n                    "eye_left": {\n                        "y": 115, \n                        "x": 128\n                    }, \n                    "confidence": 0.978945010372561, \n                    "center": {\n                        "y": 126, \n                        "x": 101\n                    }, \n                    "height": 138, \n                    "width": 138, \n                    "nose": {\n                        "y": 147, \n                        "x": 96\n                    }, \n                    "tid": "31337", \n                    "attributes": [\n                        {\n                            "smile_rating": 0.26, \n                            "smiling": false, \n                            "confidence": 0.26\n                        }\n                    ], \n                    "eye_right": {\n                        "y": 112, \n                        "x": 71\n                    }\n                }\n            ], \n            "height": 241\n        }\n    ]\n}'
p1580
sbag1
(g2
g3
Ntp1581
Rp1582
(dp1583
g7
I200
sg8
(dp1584
Vstatus
p1585
Vsuccess
p1586
sVimages
p1587
(lp1588
Vhttp://api.lambdal.com/static/uploads/imgRgWDs8.jpg
p1589
asg15
S'25'
p1590
sVphotos
p1591
(lp1592
(dp1593
Vurl
p1594
Vhttp://api.lambdal.com/static/uploads/imgRgWDs8.jpg
p1595
sVwidth
p1596
I247
sVheight
p1597
I338
sVtags
p1598
(lp1599
sassg26
(ihttplib
HTTPMessage
p1600
(dp1601
g29
Nsg30
g31
sg32
Nsg33
Nsg34
S'json'
p1602
sg36
S'application/json'
p1603
sg38
S'application'
p1604
sg40
(lp1605
S'access-control-allow-origin: *\r\n'
p1606
aS'content-type: application/json\r\n'
p1607
aS'date: Thu, 13 Mar 2014 18:37:37 GMT\r\n'
p1608
aS'server: nginx/1.1.19\r\n'
p1609
aS'X-Mashape-Proxy-Response: false\r\n'
p1610
aS'X-Mashape-Version: 3.1.11\r\n'
p1611
aS'transfer-encoding: chunked\r\n'
p1612
aS'Connection: Close\r\n'
p1613
asg50
(dp1614
S'x-mashape-proxy-response'
p1615
S'false'
p1616
sS'transfer-encoding'
p1617
S'chunked'
p1618
sS'server'
p1619
S'nginx/1.1.19'
p1620
sS'x-mashape-version'
p1621
S'3.1.11'
p1622
sS'connection'
p1623
S'Close'
p1624
sS'date'
p1625
S'Thu, 13 Mar 2014 18:37:37 GMT'
p1626
sS'access-control-allow-origin'
p1627
g65
sS'content-type'
p1628
S'application/json'
p1629
ssg68
g1629
sg69
Nsg70
I0
sg71
g31
sg72
g31
sg73
(lp1630
sbsg75
S'{\n    "status": "success", \n    "images": [\n        "http://api.lambdal.com/static/uploads/imgRgWDs8.jpg"\n    ], \n    "photos": [\n        {\n            "url": "http://api.lambdal.com/static/uploads/imgRgWDs8.jpg", \n            "width": 247, \n            "tags": [], \n            "height": 338\n        }\n    ]\n}'
p1631
sbag1
(g2
g3
Ntp1632
Rp1633
(dp1634
g7
I200
sg8
(dp1635
Vstatus
p1636
Vsuccess
p1637
sVimages
p1638
(lp1639
Vhttp://api.lambdal.com/static/uploads/imgDpP518.jpg
p1640
asg15
S'26'
p1641
sVphotos
p1642
(lp1643
(dp1644
Vurl
p1645
Vhttp://api.lambdal.com/static/uploads/imgDpP518.jpg
p1646
sVwidth
p1647
I70
sVheight
p1648
I84
sVtags
p1649
(lp1650
(dp1651
Vconfidence
p1652
F0.912870929175277
sVcenter
p1653
(dp1654
Vy
p1655
I46
sVx
p1656
I35
ssVheight
p1657
I52
sVwidth
p1658
I52
sVtid
p1659
V31337
p1660
sVattributes
p1661
(lp1662
(dp1663
Vsmile_rating
p1664
F0.1
sVsmiling
p1665
I00
sVconfidence
p1666
F0.1
sasasassg26
(ihttplib
HTTPMessage
p1667
(dp1668
g29
Nsg30
g31
sg32
Nsg33
Nsg34
S'json'
p1669
sg36
S'application/json'
p1670
sg38
S'application'
p1671
sg40
(lp1672
S'access-control-allow-origin: *\r\n'
p1673
aS'content-type: application/json\r\n'
p1674
aS'date: Thu, 13 Mar 2014 18:37:37 GMT\r\n'
p1675
aS'server: nginx/1.1.19\r\n'
p1676
aS'X-Mashape-Proxy-Response: false\r\n'
p1677
aS'X-Mashape-Version: 3.1.11\r\n'
p1678
aS'transfer-encoding: chunked\r\n'
p1679
aS'Connection: Close\r\n'
p1680
asg50
(dp1681
S'x-mashape-proxy-response'
p1682
S'false'
p1683
sS'transfer-encoding'
p1684
S'chunked'
p1685
sS'server'
p1686
S'nginx/1.1.19'
p1687
sS'x-mashape-version'
p1688
S'3.1.11'
p1689
sS'connection'
p1690
S'Close'
p1691
sS'date'
p1692
S'Thu, 13 Mar 2014 18:37:37 GMT'
p1693
sS'access-control-allow-origin'
p1694
g65
sS'content-type'
p1695
S'application/json'
p1696
ssg68
g1696
sg69
Nsg70
I0
sg71
g31
sg72
g31
sg73
(lp1697
sbsg75
S'{\n    "status": "success", \n    "images": [\n        "http://api.lambdal.com/static/uploads/imgDpP518.jpg"\n    ], \n    "photos": [\n        {\n            "url": "http://api.lambdal.com/static/uploads/imgDpP518.jpg", \n            "width": 70, \n            "tags": [\n                {\n                    "confidence": 0.912870929175277, \n                    "center": {\n                        "y": 46, \n                        "x": 35\n                    }, \n                    "height": 52, \n                    "width": 52, \n                    "tid": "31337", \n                    "attributes": [\n                        {\n                            "smile_rating": 0.1, \n                            "smiling": false, \n                            "confidence": 0.1\n                        }\n                    ]\n                }\n            ], \n            "height": 84\n        }\n    ]\n}'
p1698
sbag1
(g2
g3
Ntp1699
Rp1700
(dp1701
g7
I200
sg8
(dp1702
Vstatus
p1703
Vsuccess
p1704
sVimages
p1705
(lp1706
Vhttp://api.lambdal.com/static/uploads/imgfKeDVk.jpg
p1707
asg15
S'27'
p1708
sVphotos
p1709
(lp1710
(dp1711
Vurl
p1712
Vhttp://api.lambdal.com/static/uploads/imgfKeDVk.jpg
p1713
sVwidth
p1714
I44
sVheight
p1715
I52
sVtags
p1716
(lp1717
sassg26
(ihttplib
HTTPMessage
p1718
(dp1719
g29
Nsg30
g31
sg32
Nsg33
Nsg34
S'json'
p1720
sg36
S'application/json'
p1721
sg38
S'application'
p1722
sg40
(lp1723
S'access-control-allow-origin: *\r\n'
p1724
aS'content-type: application/json\r\n'
p1725
aS'date: Thu, 13 Mar 2014 18:37:38 GMT\r\n'
p1726
aS'server: nginx/1.1.19\r\n'
p1727
aS'X-Mashape-Proxy-Response: false\r\n'
p1728
aS'X-Mashape-Version: 3.1.11\r\n'
p1729
aS'transfer-encoding: chunked\r\n'
p1730
aS'Connection: Close\r\n'
p1731
asg50
(dp1732
S'x-mashape-proxy-response'
p1733
S'false'
p1734
sS'transfer-encoding'
p1735
S'chunked'
p1736
sS'server'
p1737
S'nginx/1.1.19'
p1738
sS'x-mashape-version'
p1739
S'3.1.11'
p1740
sS'connection'
p1741
S'Close'
p1742
sS'date'
p1743
S'Thu, 13 Mar 2014 18:37:38 GMT'
p1744
sS'access-control-allow-origin'
p1745
g65
sS'content-type'
p1746
S'application/json'
p1747
ssg68
g1747
sg69
Nsg70
I0
sg71
g31
sg72
g31
sg73
(lp1748
sbsg75
S'{\n    "status": "success", \n    "images": [\n        "http://api.lambdal.com/static/uploads/imgfKeDVk.jpg"\n    ], \n    "photos": [\n        {\n            "url": "http://api.lambdal.com/static/uploads/imgfKeDVk.jpg", \n            "width": 44, \n            "tags": [], \n            "height": 52\n        }\n    ]\n}'
p1749
sbag1
(g2
g3
Ntp1750
Rp1751
(dp1752
g7
I200
sg8
(dp1753
Vstatus
p1754
Vsuccess
p1755
sVimages
p1756
(lp1757
Vhttp://api.lambdal.com/static/uploads/img7wIMvO.jpg
p1758
asg15
S'28'
p1759
sVphotos
p1760
(lp1761
(dp1762
Vurl
p1763
Vhttp://api.lambdal.com/static/uploads/img7wIMvO.jpg
p1764
sVwidth
p1765
I218
sVheight
p1766
I198
sVtags
p1767
(lp1768
sassg26
(ihttplib
HTTPMessage
p1769
(dp1770
g29
Nsg30
g31
sg32
Nsg33
Nsg34
S'json'
p1771
sg36
S'application/json'
p1772
sg38
S'application'
p1773
sg40
(lp1774
S'access-control-allow-origin: *\r\n'
p1775
aS'content-type: application/json\r\n'
p1776
aS'date: Thu, 13 Mar 2014 18:37:38 GMT\r\n'
p1777
aS'server: nginx/1.1.19\r\n'
p1778
aS'X-Mashape-Proxy-Response: false\r\n'
p1779
aS'X-Mashape-Version: 3.1.11\r\n'
p1780
aS'transfer-encoding: chunked\r\n'
p1781
aS'Connection: Close\r\n'
p1782
asg50
(dp1783
S'x-mashape-proxy-response'
p1784
S'false'
p1785
sS'transfer-encoding'
p1786
S'chunked'
p1787
sS'server'
p1788
S'nginx/1.1.19'
p1789
sS'x-mashape-version'
p1790
S'3.1.11'
p1791
sS'connection'
p1792
S'Close'
p1793
sS'date'
p1794
S'Thu, 13 Mar 2014 18:37:38 GMT'
p1795
sS'access-control-allow-origin'
p1796
g65
sS'content-type'
p1797
S'application/json'
p1798
ssg68
g1798
sg69
Nsg70
I0
sg71
g31
sg72
g31
sg73
(lp1799
sbsg75
S'{\n    "status": "success", \n    "images": [\n        "http://api.lambdal.com/static/uploads/img7wIMvO.jpg"\n    ], \n    "photos": [\n        {\n            "url": "http://api.lambdal.com/static/uploads/img7wIMvO.jpg", \n            "width": 218, \n            "tags": [], \n            "height": 198\n        }\n    ]\n}'
p1800
sbag1
(g2
g3
Ntp1801
Rp1802
(dp1803
g7
I200
sg8
(dp1804
Vstatus
p1805
Vsuccess
p1806
sVimages
p1807
(lp1808
Vhttp://api.lambdal.com/static/uploads/imgyhhxbH.jpg
p1809
asg15
S'29'
p1810
sVphotos
p1811
(lp1812
(dp1813
Vurl
p1814
Vhttp://api.lambdal.com/static/uploads/imgyhhxbH.jpg
p1815
sVwidth
p1816
I38
sVheight
p1817
I46
sVtags
p1818
(lp1819
sassg26
(ihttplib
HTTPMessage
p1820
(dp1821
g29
Nsg30
g31
sg32
Nsg33
Nsg34
S'json'
p1822
sg36
S'application/json'
p1823
sg38
S'application'
p1824
sg40
(lp1825
S'access-control-allow-origin: *\r\n'
p1826
aS'content-type: application/json\r\n'
p1827
aS'date: Thu, 13 Mar 2014 18:37:38 GMT\r\n'
p1828
aS'server: nginx/1.1.19\r\n'
p1829
aS'X-Mashape-Proxy-Response: false\r\n'
p1830
aS'X-Mashape-Version: 3.1.11\r\n'
p1831
aS'transfer-encoding: chunked\r\n'
p1832
aS'Connection: Close\r\n'
p1833
asg50
(dp1834
S'x-mashape-proxy-response'
p1835
S'false'
p1836
sS'transfer-encoding'
p1837
S'chunked'
p1838
sS'server'
p1839
S'nginx/1.1.19'
p1840
sS'x-mashape-version'
p1841
S'3.1.11'
p1842
sS'connection'
p1843
S'Close'
p1844
sS'date'
p1845
S'Thu, 13 Mar 2014 18:37:38 GMT'
p1846
sS'access-control-allow-origin'
p1847
g65
sS'content-type'
p1848
S'application/json'
p1849
ssg68
g1849
sg69
Nsg70
I0
sg71
g31
sg72
g31
sg73
(lp1850
sbsg75
S'{\n    "status": "success", \n    "images": [\n        "http://api.lambdal.com/static/uploads/imgyhhxbH.jpg"\n    ], \n    "photos": [\n        {\n            "url": "http://api.lambdal.com/static/uploads/imgyhhxbH.jpg", \n            "width": 38, \n            "tags": [], \n            "height": 46\n        }\n    ]\n}'
p1851
sba.